; Function Attrs: mustprogress nofree norecurse nosync nounwind willreturn memory(argmem: readwrite) uwtable
define hidden void @av1_tile_set_row(ptr nocapture noundef writeonly %0, ptr nocapture noundef readonly %1, i32 noundef %2) local_unnamed_addr #0 {
  %4 = getelementptr inbounds i8, ptr %1, i64 27456
  %5 = sext i32 %2 to i64
  %6 = getelementptr inbounds [65 x i32], ptr %4, i64 0, i64 %5
  %7 = load i32, ptr %6, align 4
  %8 = getelementptr inbounds i8, ptr %1, i64 25220
  %9 = load i32, ptr %8, align 4
  %10 = shl i32 %7, %9
  %11 = add nsw i32 %2, 1
  %12 = sext i32 %11 to i64
  %13 = getelementptr inbounds [65 x i32], ptr %4, i64 0, i64 %12
  %14 = load i32, ptr %13, align 4
  %15 = shl i32 %14, %9
  %16 = getelementptr inbounds nuw i8, ptr %0, i64 16
  store i32 %2, ptr %16, align 4
  store i32 %10, ptr %0, align 4
  %17 = getelementptr inbounds i8, ptr %1, i64 1076
  %18 = load i32, ptr %17, align 4
  %. = tail call i32 @llvm.smin.i32(i32 %15, i32 %18)
  %19 = getelementptr inbounds nuw i8, ptr %0, i64 4
  store i32 %., ptr %19, align 4
  ret void
}